; Function Attrs: nounwind sspstrong uwtable
define dso_local ptr @lock_user(i32 noundef %type, i64 noundef %guest_addr, i64 noundef %len, i1 noundef zeroext %copy) local_unnamed_addr #0 {
entry:
  %cmp.i = icmp eq i64 %len, 0
  br i1 %cmp.i, label %cond.true.i, label %cond.false.i

cond.true.i:                                      ; preds = %entry
  %0 = load i64, ptr @reserved_va, align 8
  %tobool.not.i.i = icmp eq i64 %0, 0
  %cmp1.i.i = icmp uge i64 %0, %guest_addr
  %cmp.i.i = or i1 %tobool.not.i.i, %cmp1.i.i
  br i1 %cmp.i.i, label %access_ok_untagged.exit, label %return

cond.false.i:                                     ; preds = %entry
  %sub.i.i = add i64 %len, -1
  %1 = load i64, ptr @reserved_va, align 8
  %tobool.not.i5.i = icmp eq i64 %1, 0
  %..i.i = select i1 %tobool.not.i5.i, i64 -1, i64 %1
  %cmp.not.i.i = icmp ule i64 %sub.i.i, %..i.i
  %reass.sub = sub i64 %..i.i, %len
  %add.i.i = add i64 %reass.sub, 1
  %cmp7.i.i = icmp ule i64 %guest_addr, %add.i.i
  %2 = and i1 %cmp.not.i.i, %cmp7.i.i
  br i1 %2, label %access_ok_untagged.exit, label %return

access_ok_untagged.exit:                          ; preds = %cond.true.i, %cond.false.i
  %call2.i = tail call zeroext i1 @page_check_range(i64 noundef %guest_addr, i64 noundef %len, i32 noundef %type) #3
  br i1 %call2.i, label %if.end, label %return

if.end:                                           ; preds = %access_ok_untagged.exit
  %3 = load i64, ptr @guest_base, align 8
  %add.i = add i64 %3, %guest_addr
  %4 = inttoptr i64 %add.i to ptr
  br label %return

return:                                           ; preds = %cond.true.i, %cond.false.i, %access_ok_untagged.exit, %if.end
  %retval.0 = phi ptr [ %4, %if.end ], [ null, %access_ok_untagged.exit ], [ null, %cond.false.i ], [ null, %cond.true.i ]
  ret ptr %retval.0
}